

Microchip MPLAB XC8 Assembler V2.35 build 20211206165544 
                                                                                               Wed May 18 10:09:46 2022

Microchip MPLAB XC8 C Compiler v2.35 (Free license) build 20211206165544 Og1 
     1                           	processor	16F887
     2                           	pagewidth 120
     3                           	opt	flic
     4                           	psect	cinit,global,class=CODE,merge=1,delta=2
     5                           	psect	bssCOMMON,global,class=COMMON,space=1,delta=1,noexec
     6                           	psect	cstackCOMMON,global,class=COMMON,space=1,delta=1,noexec
     7                           	psect	cstackBANK0,global,class=BANK0,space=1,delta=1,noexec
     8                           	psect	maintext,global,class=CODE,split=1,delta=2
     9                           	psect	text1,local,class=CODE,merge=1,delta=2
    10                           	psect	text2,local,class=CODE,merge=1,delta=2
    11                           	psect	text3,local,class=CODE,merge=1,delta=2
    12                           	psect	text4,local,class=CODE,merge=1,delta=2
    13                           	psect	intentry,global,class=CODE,delta=2
    14                           	psect	idloc,global,abs,ovrld,class=IDLOC,space=5,delta=2,noexec
    15                           	psect	config,global,abs,ovrld,class=CONFIG,space=4,delta=2,noexec
    16                           	dabs	1,0x7E,2
    17  0000                     
    18                           ; Version 2.40
    19                           ; Generated 17/11/2021 GMT
    20                           ; 
    21                           ; Copyright © 2021, Microchip Technology Inc. and its subsidiaries ("Microchip")
    22                           ; All rights reserved.
    23                           ; 
    24                           ; This software is developed by Microchip Technology Inc. and its subsidiaries ("Microch
      +                          ip").
    25                           ; 
    26                           ; Redistribution and use in source and binary forms, with or without modification, are
    27                           ; permitted provided that the following conditions are met:
    28                           ; 
    29                           ;     1. Redistributions of source code must retain the above copyright notice, this lis
      +                          t of
    30                           ;        conditions and the following disclaimer.
    31                           ; 
    32                           ;     2. Redistributions in binary form must reproduce the above copyright notice, this 
      +                          list
    33                           ;        of conditions and the following disclaimer in the documentation and/or other
    34                           ;        materials provided with the distribution. Publication is not required when
    35                           ;        this file is used in an embedded application.
    36                           ; 
    37                           ;     3. Microchip's name may not be used to endorse or promote products derived from th
      +                          is
    38                           ;        software without specific prior written permission.
    39                           ; 
    40                           ; THIS SOFTWARE IS PROVIDED BY MICROCHIP "AS IS" AND ANY EXPRESS OR IMPLIED WARRANTIES,
    41                           ; INCLUDING, BUT NOT LIMITED TO, THE IMPLIED WARRANTIES OF MERCHANTABILITY AND FITNESS F
      +                          OR
    42                           ; PURPOSE ARE DISCLAIMED.  IN NO EVENT SHALL MICROCHIP BE LIABLE FOR ANY DIRECT, INDIREC
      +                          T,
    43                           ; INCIDENTAL, SPECIAL, EXEMPLARY, OR CONSEQUENTIAL DAMAGES (INCLUDING BUT NOT LIMITED TO
    44                           ; PROCUREMENT OF SUBSTITUTE GOODS OR SERVICES; LOSS OF USE, DATA OR PROFITS; OR BUSINESS
    45                           ; INTERRUPTION) HOWSOEVER CAUSED AND ON ANY THEORY OF LIABILITY, WHETHER IN CONTRACT, ST
      +                          RICT
    46                           ; LIABILITY, OR TORT (INCLUDING NEGLIGENCE OR OTHERWISE) ARISING IN ANY WAY OUT OF THE U
      +                          SE OF
    47                           ; THIS SOFTWARE, EVEN IF ADVISED OF THE POSSIBILITY OF SUCH DAMAGE.
    48                           ; 
    49                           ; 
    50                           ; Code-generator required, PIC16F887 Definitions
    51                           ; 
    52                           ; SFR Addresses
    53  0000                     	;# 
    54  0001                     	;# 
    55  0002                     	;# 
    56  0003                     	;# 
    57  0004                     	;# 
    58  0005                     	;# 
    59  0006                     	;# 
    60  0007                     	;# 
    61  0008                     	;# 
    62  0009                     	;# 
    63  000A                     	;# 
    64  000B                     	;# 
    65  000C                     	;# 
    66  000D                     	;# 
    67  000E                     	;# 
    68  000E                     	;# 
    69  000F                     	;# 
    70  0010                     	;# 
    71  0011                     	;# 
    72  0012                     	;# 
    73  0013                     	;# 
    74  0014                     	;# 
    75  0015                     	;# 
    76  0015                     	;# 
    77  0016                     	;# 
    78  0017                     	;# 
    79  0018                     	;# 
    80  0019                     	;# 
    81  001A                     	;# 
    82  001B                     	;# 
    83  001B                     	;# 
    84  001C                     	;# 
    85  001D                     	;# 
    86  001E                     	;# 
    87  001F                     	;# 
    88  0081                     	;# 
    89  0085                     	;# 
    90  0086                     	;# 
    91  0087                     	;# 
    92  0088                     	;# 
    93  0089                     	;# 
    94  008C                     	;# 
    95  008D                     	;# 
    96  008E                     	;# 
    97  008F                     	;# 
    98  0090                     	;# 
    99  0091                     	;# 
   100  0092                     	;# 
   101  0093                     	;# 
   102  0093                     	;# 
   103  0093                     	;# 
   104  0094                     	;# 
   105  0095                     	;# 
   106  0096                     	;# 
   107  0097                     	;# 
   108  0098                     	;# 
   109  0099                     	;# 
   110  009A                     	;# 
   111  009B                     	;# 
   112  009C                     	;# 
   113  009D                     	;# 
   114  009E                     	;# 
   115  009F                     	;# 
   116  0105                     	;# 
   117  0107                     	;# 
   118  0108                     	;# 
   119  0109                     	;# 
   120  010C                     	;# 
   121  010C                     	;# 
   122  010D                     	;# 
   123  010E                     	;# 
   124  010F                     	;# 
   125  0185                     	;# 
   126  0187                     	;# 
   127  0188                     	;# 
   128  0189                     	;# 
   129  018C                     	;# 
   130  018D                     	;# 
   131  0000                     	;# 
   132  0001                     	;# 
   133  0002                     	;# 
   134  0003                     	;# 
   135  0004                     	;# 
   136  0005                     	;# 
   137  0006                     	;# 
   138  0007                     	;# 
   139  0008                     	;# 
   140  0009                     	;# 
   141  000A                     	;# 
   142  000B                     	;# 
   143  000C                     	;# 
   144  000D                     	;# 
   145  000E                     	;# 
   146  000E                     	;# 
   147  000F                     	;# 
   148  0010                     	;# 
   149  0011                     	;# 
   150  0012                     	;# 
   151  0013                     	;# 
   152  0014                     	;# 
   153  0015                     	;# 
   154  0015                     	;# 
   155  0016                     	;# 
   156  0017                     	;# 
   157  0018                     	;# 
   158  0019                     	;# 
   159  001A                     	;# 
   160  001B                     	;# 
   161  001B                     	;# 
   162  001C                     	;# 
   163  001D                     	;# 
   164  001E                     	;# 
   165  001F                     	;# 
   166  0081                     	;# 
   167  0085                     	;# 
   168  0086                     	;# 
   169  0087                     	;# 
   170  0088                     	;# 
   171  0089                     	;# 
   172  008C                     	;# 
   173  008D                     	;# 
   174  008E                     	;# 
   175  008F                     	;# 
   176  0090                     	;# 
   177  0091                     	;# 
   178  0092                     	;# 
   179  0093                     	;# 
   180  0093                     	;# 
   181  0093                     	;# 
   182  0094                     	;# 
   183  0095                     	;# 
   184  0096                     	;# 
   185  0097                     	;# 
   186  0098                     	;# 
   187  0099                     	;# 
   188  009A                     	;# 
   189  009B                     	;# 
   190  009C                     	;# 
   191  009D                     	;# 
   192  009E                     	;# 
   193  009F                     	;# 
   194  0105                     	;# 
   195  0107                     	;# 
   196  0108                     	;# 
   197  0109                     	;# 
   198  010C                     	;# 
   199  010C                     	;# 
   200  010D                     	;# 
   201  010E                     	;# 
   202  010F                     	;# 
   203  0185                     	;# 
   204  0187                     	;# 
   205  0188                     	;# 
   206  0189                     	;# 
   207  018C                     	;# 
   208  018D                     	;# 
   209  0009                     _PORTE	set	9
   210  0009                     _PORTEbits	set	9
   211  0008                     _PORTD	set	8
   212  0006                     _PORTBbits	set	6
   213  000B                     _INTCONbits	set	11
   214  0007                     _PORTC	set	7
   215  001E                     _ADRESH	set	30
   216  001F                     _ADCON0bits	set	31
   217  000C                     _PIR1bits	set	12
   218  0096                     _IOCBbits	set	150
   219  0095                     _WPUBbits	set	149
   220  0081                     _OPTION_REGbits	set	129
   221  009F                     _ADCON1bits	set	159
   222  008F                     _OSCCONbits	set	143
   223  0089                     _TRISE	set	137
   224  0088                     _TRISD	set	136
   225  0087                     _TRISC	set	135
   226  008C                     _PIE1bits	set	140
   227  010C                     _EEDAT	set	268
   228  010D                     _EEADR	set	269
   229  018D                     _EECON2	set	397
   230  018C                     _EECON1bits	set	396
   231  0189                     _ANSELH	set	393
   232  0188                     _ANSEL	set	392
   233                           
   234                           	psect	cinit
   235  000F                     start_initialization:	
   236                           ; #config settings
   237                           
   238  000F                     __initialization:
   239                           
   240                           ; Clear objects allocated to COMMON
   241  000F  01F5               	clrf	__pbssCOMMON& (0+127)
   242  0010  01F6               	clrf	(__pbssCOMMON+1)& (0+127)
   243  0011  01F7               	clrf	(__pbssCOMMON+2)& (0+127)
   244  0012  01F8               	clrf	(__pbssCOMMON+3)& (0+127)
   245  0013                     end_of_initialization:	
   246                           ;End of C runtime variable initialization code
   247                           
   248  0013                     __end_of__initialization:
   249  0013  0183               	clrf	3
   250  0014  120A  118A  2817   	ljmp	_main	;jump to C main() function
   251                           
   252                           	psect	bssCOMMON
   253  0075                     __pbssCOMMON:
   254  0075                     _bandera_sleep:
   255  0075                     	ds	1
   256  0076                     _valor_pot:
   257  0076                     	ds	1
   258  0077                     _bandera_read:
   259  0077                     	ds	1
   260  0078                     _bandera_write:
   261  0078                     	ds	1
   262                           
   263                           	psect	cstackCOMMON
   264  0070                     __pcstackCOMMON:
   265  0070                     ?_setup:
   266  0070                     ?_read_EEPROM:	
   267                           ; 1 bytes @ 0x0
   268                           
   269  0070                     ?_isr:	
   270                           ; 1 bytes @ 0x0
   271                           
   272  0070                     ??_isr:	
   273                           ; 1 bytes @ 0x0
   274                           
   275  0070                     ?_main:	
   276                           ; 1 bytes @ 0x0
   277                           
   278                           
   279                           ; 1 bytes @ 0x0
   280  0070                     	ds	3
   281  0073                     ??_setup:
   282  0073                     ?_write_EEPROM:	
   283                           ; 1 bytes @ 0x3
   284                           
   285  0073                     ??_read_EEPROM:	
   286                           ; 1 bytes @ 0x3
   287                           
   288  0073                     read_EEPROM@address:	
   289                           ; 1 bytes @ 0x3
   290                           
   291  0073                     write_EEPROM@data:	
   292                           ; 1 bytes @ 0x3
   293                           
   294                           
   295                           ; 1 bytes @ 0x3
   296  0073                     	ds	1
   297  0074                     ??_write_EEPROM:
   298  0074                     write_EEPROM@address:	
   299                           ; 1 bytes @ 0x4
   300                           
   301                           
   302                           ; 1 bytes @ 0x4
   303  0074                     	ds	1
   304                           
   305                           	psect	cstackBANK0
   306  0020                     __pcstackBANK0:
   307  0020                     ??_main:
   308                           
   309                           ; 1 bytes @ 0x0
   310  0020                     	ds	3
   311                           
   312                           	psect	maintext
   313  0017                     __pmaintext:	
   314 ;;
   315 ;;Main: autosize = 0, tempsize = 3, incstack = 0, save=0
   316 ;;
   317 ;; *************** function _main *****************
   318 ;; Defined at:
   319 ;;		line 84 in file "main.c"
   320 ;; Parameters:    Size  Location     Type
   321 ;;		None
   322 ;; Auto vars:     Size  Location     Type
   323 ;;		None
   324 ;; Return value:  Size  Location     Type
   325 ;;                  1    wreg      void 
   326 ;; Registers used:
   327 ;;		wreg, status,2, status,0, pclath, cstack
   328 ;; Tracked objects:
   329 ;;		On entry : B00/0
   330 ;;		On exit  : 0/0
   331 ;;		Unchanged: 0/0
   332 ;; Data sizes:     COMMON   BANK0   BANK1   BANK3   BANK2
   333 ;;      Params:         0       0       0       0       0
   334 ;;      Locals:         0       0       0       0       0
   335 ;;      Temps:          0       3       0       0       0
   336 ;;      Totals:         0       3       0       0       0
   337 ;;Total ram usage:        3 bytes
   338 ;; Hardware stack levels required when called: 2
   339 ;; This function calls:
   340 ;;		_read_EEPROM
   341 ;;		_setup
   342 ;;		_write_EEPROM
   343 ;; This function is called by:
   344 ;;		Startup code after reset
   345 ;; This function uses a non-reentrant model
   346 ;;
   347                           
   348  0017                     _main:	
   349                           ;psect for function _main
   350                           
   351  0017                     l884:	
   352                           ;incstack = 0
   353                           ; Regs used in _main: [wreg+status,2+status,0+pclath+cstack]
   354                           
   355                           
   356                           ;main.c: 85:     setup();
   357  0017  120A  118A  207E  120A  118A  	fcall	_setup
   358  001C                     l886:
   359                           
   360                           ;main.c: 87:         if(ADCON0bits.GO == 0){
   361  001C  1283               	bcf	3,5	;RP0=0, select bank0
   362  001D  1303               	bcf	3,6	;RP1=0, select bank0
   363  001E  189F               	btfsc	31,1	;volatile
   364  001F  2821               	goto	u171
   365  0020  2822               	goto	u170
   366  0021                     u171:
   367  0021  2823               	goto	l890
   368  0022                     u170:
   369  0022                     l888:
   370                           
   371                           ;main.c: 88:             ADCON0bits.GO = 1;}
   372  0022  149F               	bsf	31,1	;volatile
   373  0023                     l890:
   374                           
   375                           ;main.c: 91:         if (bandera_sleep==1){
   376  0023  0375               	decf	_bandera_sleep,w
   377  0024  1D03               	btfss	3,2
   378  0025  2827               	goto	u181
   379  0026  2828               	goto	u180
   380  0027                     u181:
   381  0027  282D               	goto	l894
   382  0028                     u180:
   383  0028                     l892:
   384                           
   385                           ;main.c: 92:             PIE1bits.ADIE =0 ;
   386  0028  1683               	bsf	3,5	;RP0=1, select bank1
   387  0029  1303               	bcf	3,6	;RP1=0, select bank1
   388  002A  130C               	bcf	12,6	;volatile
   389  002B  0063               	sleep	;# 
   390                           
   391                           ;main.c: 94:         }
   392  002C  2835               	goto	l898
   393  002D                     l894:
   394  002D  0875               	movf	_bandera_sleep,w
   395  002E  1D03               	btfss	3,2
   396  002F  2831               	goto	u191
   397  0030  2832               	goto	u190
   398  0031                     u191:
   399  0031  2835               	goto	l898
   400  0032                     u190:
   401  0032                     l896:
   402                           
   403                           ;main.c: 96:             PIE1bits.ADIE =1 ;
   404  0032  1683               	bsf	3,5	;RP0=1, select bank1
   405  0033  1303               	bcf	3,6	;RP1=0, select bank1
   406  0034  170C               	bsf	12,6	;volatile
   407  0035                     l898:
   408                           
   409                           ;main.c: 99:         if(bandera_write == 1){
   410  0035  0378               	decf	_bandera_write,w
   411  0036  1D03               	btfss	3,2
   412  0037  2839               	goto	u201
   413  0038  283A               	goto	u200
   414  0039                     u201:
   415  0039  2851               	goto	l906
   416  003A                     u200:
   417  003A                     l900:
   418                           
   419                           ;main.c: 100:             write_EEPROM(1,valor_pot);
   420  003A  0876               	movf	_valor_pot,w
   421  003B  1283               	bcf	3,5	;RP0=0, select bank0
   422  003C  1303               	bcf	3,6	;RP1=0, select bank0
   423  003D  00A0               	movwf	??_main
   424  003E  0820               	movf	??_main,w
   425  003F  00F3               	movwf	write_EEPROM@data
   426  0040  3001               	movlw	1
   427  0041  120A  118A  2107  120A  118A  	fcall	_write_EEPROM
   428  0046                     l902:
   429                           
   430                           ;main.c: 101:             _delay((unsigned long)((10)*(4000000/4000.0)));
   431  0046  300D               	movlw	13
   432  0047  1283               	bcf	3,5	;RP0=0, select bank0
   433  0048  1303               	bcf	3,6	;RP1=0, select bank0
   434  0049  00A1               	movwf	??_main+1
   435  004A  30FB               	movlw	251
   436  004B  00A0               	movwf	??_main
   437  004C                     u217:
   438  004C  0BA0               	decfsz	??_main,f
   439  004D  284C               	goto	u217
   440  004E  0BA1               	decfsz	??_main+1,f
   441  004F  284C               	goto	u217
   442  0050                     l904:
   443                           
   444                           ;main.c: 102:             bandera_write = 0;
   445  0050  01F8               	clrf	_bandera_write
   446  0051                     l906:
   447                           
   448                           ;main.c: 105:         PORTD = read_EEPROM(1);
   449  0051  3001               	movlw	1
   450  0052  120A  118A  211C  120A  118A  	fcall	_read_EEPROM
   451  0057  1283               	bcf	3,5	;RP0=0, select bank0
   452  0058  1303               	bcf	3,6	;RP1=0, select bank0
   453  0059  0088               	movwf	8	;volatile
   454  005A                     l908:
   455                           
   456                           ;main.c: 106:         PORTEbits.RE0 = 1;
   457  005A  1409               	bsf	9,0	;volatile
   458  005B                     l910:
   459                           
   460                           ;main.c: 107:         _delay((unsigned long)((250)*(4000000/4000.0)));
   461  005B  3002               	movlw	2
   462  005C  1283               	bcf	3,5	;RP0=0, select bank0
   463  005D  1303               	bcf	3,6	;RP1=0, select bank0
   464  005E  00A2               	movwf	??_main+2
   465  005F  3045               	movlw	69
   466  0060  00A1               	movwf	??_main+1
   467  0061  30A9               	movlw	169
   468  0062  00A0               	movwf	??_main
   469  0063                     u227:
   470  0063  0BA0               	decfsz	??_main,f
   471  0064  2863               	goto	u227
   472  0065  0BA1               	decfsz	??_main+1,f
   473  0066  2863               	goto	u227
   474  0067  0BA2               	decfsz	??_main+2,f
   475  0068  2863               	goto	u227
   476  0069                     l912:
   477                           
   478                           ;main.c: 108:         PORTEbits.RE0 = 0;
   479  0069  1283               	bcf	3,5	;RP0=0, select bank0
   480  006A  1303               	bcf	3,6	;RP1=0, select bank0
   481  006B  1009               	bcf	9,0	;volatile
   482  006C                     l914:
   483                           
   484                           ;main.c: 109:         _delay((unsigned long)((250)*(4000000/4000.0)));
   485  006C  3002               	movlw	2
   486  006D  1283               	bcf	3,5	;RP0=0, select bank0
   487  006E  1303               	bcf	3,6	;RP1=0, select bank0
   488  006F  00A2               	movwf	??_main+2
   489  0070  3045               	movlw	69
   490  0071  00A1               	movwf	??_main+1
   491  0072  30A9               	movlw	169
   492  0073  00A0               	movwf	??_main
   493  0074                     u237:
   494  0074  0BA0               	decfsz	??_main,f
   495  0075  2874               	goto	u237
   496  0076  0BA1               	decfsz	??_main+1,f
   497  0077  2874               	goto	u237
   498  0078  0BA2               	decfsz	??_main+2,f
   499  0079  2874               	goto	u237
   500  007A  281C               	goto	l886
   501  007B  120A  118A  280C   	ljmp	start
   502  007E                     __end_of_main:
   503                           
   504                           	psect	text1
   505  0107                     __ptext1:	
   506 ;; *************** function _write_EEPROM *****************
   507 ;; Defined at:
   508 ;;		line 176 in file "main.c"
   509 ;; Parameters:    Size  Location     Type
   510 ;;  address         1    wreg     unsigned char 
   511 ;;  data            1    3[COMMON] unsigned char 
   512 ;; Auto vars:     Size  Location     Type
   513 ;;  address         1    4[COMMON] unsigned char 
   514 ;; Return value:  Size  Location     Type
   515 ;;                  1    wreg      void 
   516 ;; Registers used:
   517 ;;		wreg
   518 ;; Tracked objects:
   519 ;;		On entry : 0/0
   520 ;;		On exit  : 0/0
   521 ;;		Unchanged: 0/0
   522 ;; Data sizes:     COMMON   BANK0   BANK1   BANK3   BANK2
   523 ;;      Params:         1       0       0       0       0
   524 ;;      Locals:         1       0       0       0       0
   525 ;;      Temps:          0       0       0       0       0
   526 ;;      Totals:         2       0       0       0       0
   527 ;;Total ram usage:        2 bytes
   528 ;; Hardware stack levels used: 1
   529 ;; Hardware stack levels required when called: 1
   530 ;; This function calls:
   531 ;;		Nothing
   532 ;; This function is called by:
   533 ;;		_main
   534 ;; This function uses a non-reentrant model
   535 ;;
   536                           
   537  0107                     _write_EEPROM:	
   538                           ;psect for function _write_EEPROM
   539                           
   540                           
   541                           ;incstack = 0
   542                           ; Regs used in _write_EEPROM: [wreg]
   543                           ;write_EEPROM@address stored from wreg
   544  0107  00F4               	movwf	write_EEPROM@address
   545  0108                     l836:
   546                           
   547                           ;main.c: 177:     EEADR = address;
   548  0108  0874               	movf	write_EEPROM@address,w
   549  0109  1283               	bcf	3,5	;RP0=0, select bank2
   550  010A  1703               	bsf	3,6	;RP1=1, select bank2
   551  010B  008D               	movwf	13	;volatile
   552                           
   553                           ;main.c: 178:     EEDAT = data;
   554  010C  0873               	movf	write_EEPROM@data,w
   555  010D  008C               	movwf	12	;volatile
   556  010E                     l838:
   557                           
   558                           ;main.c: 179:     EECON1bits.EEPGD = 0;
   559  010E  1683               	bsf	3,5	;RP0=1, select bank3
   560  010F  1703               	bsf	3,6	;RP1=1, select bank3
   561  0110  138C               	bcf	12,7	;volsfr
   562  0111                     l840:
   563                           
   564                           ;main.c: 180:     EECON1bits.WREN = 1;
   565  0111  150C               	bsf	12,2	;volsfr
   566  0112                     l842:
   567                           
   568                           ;main.c: 182:     INTCONbits.GIE = 0;
   569  0112  138B               	bcf	11,7	;volatile
   570                           
   571                           ;main.c: 183:     EECON2 = 0x55;
   572  0113  3055               	movlw	85
   573  0114  008D               	movwf	13	;volsfr
   574                           
   575                           ;main.c: 184:     EECON2 = 0xAA;
   576  0115  30AA               	movlw	170
   577  0116  008D               	movwf	13	;volsfr
   578  0117                     l844:
   579                           
   580                           ;main.c: 186:     EECON1bits.WR = 1;
   581  0117  148C               	bsf	12,1	;volsfr
   582  0118                     l846:
   583                           
   584                           ;main.c: 188:     EECON1bits.WREN = 0;
   585  0118  110C               	bcf	12,2	;volsfr
   586  0119                     l848:
   587                           
   588                           ;main.c: 189:     INTCONbits.RBIF = 0;
   589  0119  100B               	bcf	11,0	;volatile
   590  011A                     l850:
   591                           
   592                           ;main.c: 190:     INTCONbits.GIE = 1;
   593  011A  178B               	bsf	11,7	;volatile
   594  011B                     l100:
   595  011B  0008               	return
   596  011C                     __end_of_write_EEPROM:
   597                           
   598                           	psect	text2
   599  007E                     __ptext2:	
   600 ;; *************** function _setup *****************
   601 ;; Defined at:
   602 ;;		line 117 in file "main.c"
   603 ;; Parameters:    Size  Location     Type
   604 ;;		None
   605 ;; Auto vars:     Size  Location     Type
   606 ;;		None
   607 ;; Return value:  Size  Location     Type
   608 ;;                  1    wreg      void 
   609 ;; Registers used:
   610 ;;		wreg, status,2, status,0
   611 ;; Tracked objects:
   612 ;;		On entry : 0/0
   613 ;;		On exit  : 0/0
   614 ;;		Unchanged: 0/0
   615 ;; Data sizes:     COMMON   BANK0   BANK1   BANK3   BANK2
   616 ;;      Params:         0       0       0       0       0
   617 ;;      Locals:         0       0       0       0       0
   618 ;;      Temps:          1       0       0       0       0
   619 ;;      Totals:         1       0       0       0       0
   620 ;;Total ram usage:        1 bytes
   621 ;; Hardware stack levels used: 1
   622 ;; Hardware stack levels required when called: 1
   623 ;; This function calls:
   624 ;;		Nothing
   625 ;; This function is called by:
   626 ;;		_main
   627 ;; This function uses a non-reentrant model
   628 ;;
   629                           
   630  007E                     _setup:	
   631                           ;psect for function _setup
   632                           
   633  007E                     l692:	
   634                           ;incstack = 0
   635                           ; Regs used in _setup: [wreg+status,2+status,0]
   636                           
   637                           
   638                           ;main.c: 120:     ANSEL = 0b01;
   639  007E  3001               	movlw	1
   640  007F  1683               	bsf	3,5	;RP0=1, select bank3
   641  0080  1703               	bsf	3,6	;RP1=1, select bank3
   642  0081  0088               	movwf	8	;volatile
   643  0082                     l694:
   644                           
   645                           ;main.c: 121:     ANSELH = 0;
   646  0082  0189               	clrf	9	;volatile
   647  0083                     l696:
   648                           
   649                           ;main.c: 123:     TRISC = 0;
   650  0083  1683               	bsf	3,5	;RP0=1, select bank1
   651  0084  1303               	bcf	3,6	;RP1=0, select bank1
   652  0085  0187               	clrf	7	;volatile
   653  0086                     l698:
   654                           
   655                           ;main.c: 124:     PORTC = 0;
   656  0086  1283               	bcf	3,5	;RP0=0, select bank0
   657  0087  1303               	bcf	3,6	;RP1=0, select bank0
   658  0088  0187               	clrf	7	;volatile
   659  0089                     l700:
   660                           
   661                           ;main.c: 126:     TRISD = 0;
   662  0089  1683               	bsf	3,5	;RP0=1, select bank1
   663  008A  1303               	bcf	3,6	;RP1=0, select bank1
   664  008B  0188               	clrf	8	;volatile
   665  008C                     l702:
   666                           
   667                           ;main.c: 127:     PORTD = 0;
   668  008C  1283               	bcf	3,5	;RP0=0, select bank0
   669  008D  1303               	bcf	3,6	;RP1=0, select bank0
   670  008E  0188               	clrf	8	;volatile
   671  008F                     l704:
   672                           
   673                           ;main.c: 129:     TRISE = 0;
   674  008F  1683               	bsf	3,5	;RP0=1, select bank1
   675  0090  1303               	bcf	3,6	;RP1=0, select bank1
   676  0091  0189               	clrf	9	;volatile
   677  0092                     l706:
   678                           
   679                           ;main.c: 130:     PORTE = 0;
   680  0092  1283               	bcf	3,5	;RP0=0, select bank0
   681  0093  1303               	bcf	3,6	;RP1=0, select bank0
   682  0094  0189               	clrf	9	;volatile
   683  0095                     l708:
   684                           
   685                           ;main.c: 134:     OSCCONbits.IRCF = 0b0110;
   686  0095  1683               	bsf	3,5	;RP0=1, select bank1
   687  0096  1303               	bcf	3,6	;RP1=0, select bank1
   688  0097  080F               	movf	15,w	;volatile
   689  0098  398F               	andlw	-113
   690  0099  3860               	iorlw	96
   691  009A  008F               	movwf	15	;volatile
   692  009B                     l710:
   693                           
   694                           ;main.c: 135:     OSCCONbits.SCS = 1;
   695  009B  140F               	bsf	15,0	;volatile
   696  009C                     l712:
   697                           
   698                           ;main.c: 138:     ADCON0bits.ADCS = 0b01;
   699  009C  1283               	bcf	3,5	;RP0=0, select bank0
   700  009D  1303               	bcf	3,6	;RP1=0, select bank0
   701  009E  081F               	movf	31,w	;volatile
   702  009F  393F               	andlw	-193
   703  00A0  3840               	iorlw	64
   704  00A1  009F               	movwf	31	;volatile
   705  00A2                     l714:
   706                           
   707                           ;main.c: 139:     ADCON1bits.VCFG0 = 0;
   708  00A2  1683               	bsf	3,5	;RP0=1, select bank1
   709  00A3  1303               	bcf	3,6	;RP1=0, select bank1
   710  00A4  121F               	bcf	31,4	;volatile
   711  00A5                     l716:
   712                           
   713                           ;main.c: 140:     ADCON1bits.VCFG1 = 0;
   714  00A5  129F               	bcf	31,5	;volatile
   715  00A6                     l718:
   716                           
   717                           ;main.c: 141:     ADCON0bits.CHS = 0b0000;
   718  00A6  30C3               	movlw	-61
   719  00A7  1283               	bcf	3,5	;RP0=0, select bank0
   720  00A8  1303               	bcf	3,6	;RP1=0, select bank0
   721  00A9  059F               	andwf	31,f	;volatile
   722  00AA                     l720:
   723                           
   724                           ;main.c: 142:     ADCON1bits.ADFM = 0;
   725  00AA  1683               	bsf	3,5	;RP0=1, select bank1
   726  00AB  1303               	bcf	3,6	;RP1=0, select bank1
   727  00AC  139F               	bcf	31,7	;volatile
   728  00AD                     l722:
   729                           
   730                           ;main.c: 143:     ADCON0bits.ADON = 1;
   731  00AD  1283               	bcf	3,5	;RP0=0, select bank0
   732  00AE  1303               	bcf	3,6	;RP1=0, select bank0
   733  00AF  141F               	bsf	31,0	;volatile
   734  00B0                     l724:
   735                           
   736                           ;main.c: 144:     _delay((unsigned long)((40)*(4000000/4000000.0)));
   737  00B0  300D               	movlw	13
   738  00B1  00F3               	movwf	??_setup
   739  00B2                     u247:
   740  00B2  0BF3               	decfsz	??_setup,f
   741  00B3  28B2               	goto	u247
   742  00B4                     l726:
   743                           
   744                           ;main.c: 147:     OPTION_REGbits.nRBPU = 0;
   745  00B4  1683               	bsf	3,5	;RP0=1, select bank1
   746  00B5  1303               	bcf	3,6	;RP1=0, select bank1
   747  00B6  1381               	bcf	1,7	;volatile
   748  00B7                     l728:
   749                           
   750                           ;main.c: 149:     WPUBbits.WPUB0 = 1;
   751  00B7  1415               	bsf	21,0	;volatile
   752  00B8                     l730:
   753                           
   754                           ;main.c: 150:     WPUBbits.WPUB1 = 1;
   755  00B8  1495               	bsf	21,1	;volatile
   756  00B9                     l732:
   757                           
   758                           ;main.c: 151:     WPUBbits.WPUB2 = 1;
   759  00B9  1515               	bsf	21,2	;volatile
   760  00BA                     l734:
   761                           
   762                           ;main.c: 152:     INTCONbits.RBIE = 1;
   763  00BA  158B               	bsf	11,3	;volatile
   764  00BB                     l736:
   765                           
   766                           ;main.c: 154:     IOCBbits.IOCB0 = 1;
   767  00BB  1416               	bsf	22,0	;volatile
   768  00BC                     l738:
   769                           
   770                           ;main.c: 155:     IOCBbits.IOCB1 = 1;
   771  00BC  1496               	bsf	22,1	;volatile
   772  00BD                     l740:
   773                           
   774                           ;main.c: 156:     IOCBbits.IOCB2 = 1;
   775  00BD  1516               	bsf	22,2	;volatile
   776  00BE                     l742:
   777                           
   778                           ;main.c: 157:     INTCONbits.RBIF = 0;
   779  00BE  100B               	bcf	11,0	;volatile
   780  00BF                     l744:
   781                           
   782                           ;main.c: 160:     PIR1bits.ADIF = 0;
   783  00BF  1283               	bcf	3,5	;RP0=0, select bank0
   784  00C0  1303               	bcf	3,6	;RP1=0, select bank0
   785  00C1  130C               	bcf	12,6	;volatile
   786  00C2                     l746:
   787                           
   788                           ;main.c: 161:     PIE1bits.ADIE = 1;
   789  00C2  1683               	bsf	3,5	;RP0=1, select bank1
   790  00C3  1303               	bcf	3,6	;RP1=0, select bank1
   791  00C4  170C               	bsf	12,6	;volatile
   792  00C5                     l748:
   793                           
   794                           ;main.c: 162:     INTCONbits.PEIE = 1;
   795  00C5  170B               	bsf	11,6	;volatile
   796  00C6                     l750:
   797                           
   798                           ;main.c: 163:     INTCONbits.GIE = 1;
   799  00C6  178B               	bsf	11,7	;volatile
   800  00C7                     l94:
   801  00C7  0008               	return
   802  00C8                     __end_of_setup:
   803                           
   804                           	psect	text3
   805  011C                     __ptext3:	
   806 ;; *************** function _read_EEPROM *****************
   807 ;; Defined at:
   808 ;;		line 168 in file "main.c"
   809 ;; Parameters:    Size  Location     Type
   810 ;;  address         1    wreg     unsigned char 
   811 ;; Auto vars:     Size  Location     Type
   812 ;;  address         1    3[COMMON] unsigned char 
   813 ;; Return value:  Size  Location     Type
   814 ;;                  1    wreg      unsigned char 
   815 ;; Registers used:
   816 ;;		wreg
   817 ;; Tracked objects:
   818 ;;		On entry : 0/0
   819 ;;		On exit  : 0/0
   820 ;;		Unchanged: 0/0
   821 ;; Data sizes:     COMMON   BANK0   BANK1   BANK3   BANK2
   822 ;;      Params:         0       0       0       0       0
   823 ;;      Locals:         1       0       0       0       0
   824 ;;      Temps:          0       0       0       0       0
   825 ;;      Totals:         1       0       0       0       0
   826 ;;Total ram usage:        1 bytes
   827 ;; Hardware stack levels used: 1
   828 ;; Hardware stack levels required when called: 1
   829 ;; This function calls:
   830 ;;		Nothing
   831 ;; This function is called by:
   832 ;;		_main
   833 ;; This function uses a non-reentrant model
   834 ;;
   835                           
   836  011C                     _read_EEPROM:	
   837                           ;psect for function _read_EEPROM
   838                           
   839                           
   840                           ;incstack = 0
   841                           ; Regs used in _read_EEPROM: [wreg]
   842                           ;read_EEPROM@address stored from wreg
   843  011C  00F3               	movwf	read_EEPROM@address
   844  011D                     l768:
   845                           
   846                           ;main.c: 169:     EEADR = address;
   847  011D  0873               	movf	read_EEPROM@address,w
   848  011E  1283               	bcf	3,5	;RP0=0, select bank2
   849  011F  1703               	bsf	3,6	;RP1=1, select bank2
   850  0120  008D               	movwf	13	;volatile
   851  0121                     l770:
   852                           
   853                           ;main.c: 170:     EECON1bits.EEPGD = 0;
   854  0121  1683               	bsf	3,5	;RP0=1, select bank3
   855  0122  1703               	bsf	3,6	;RP1=1, select bank3
   856  0123  138C               	bcf	12,7	;volsfr
   857  0124                     l772:
   858                           
   859                           ;main.c: 171:     EECON1bits.RD = 1;
   860  0124  140C               	bsf	12,0	;volsfr
   861                           
   862                           ;main.c: 172:     return EEDAT;
   863  0125  1283               	bcf	3,5	;RP0=0, select bank2
   864  0126  1703               	bsf	3,6	;RP1=1, select bank2
   865  0127  080C               	movf	12,w	;volatile
   866  0128                     l97:
   867  0128  0008               	return
   868  0129                     __end_of_read_EEPROM:
   869                           
   870                           	psect	text4
   871  00C8                     __ptext4:	
   872 ;; *************** function _isr *****************
   873 ;; Defined at:
   874 ;;		line 51 in file "main.c"
   875 ;; Parameters:    Size  Location     Type
   876 ;;		None
   877 ;; Auto vars:     Size  Location     Type
   878 ;;		None
   879 ;; Return value:  Size  Location     Type
   880 ;;                  1    wreg      void 
   881 ;; Registers used:
   882 ;;		wreg, status,2, status,0
   883 ;; Tracked objects:
   884 ;;		On entry : 0/0
   885 ;;		On exit  : 0/0
   886 ;;		Unchanged: 0/0
   887 ;; Data sizes:     COMMON   BANK0   BANK1   BANK3   BANK2
   888 ;;      Params:         0       0       0       0       0
   889 ;;      Locals:         0       0       0       0       0
   890 ;;      Temps:          3       0       0       0       0
   891 ;;      Totals:         3       0       0       0       0
   892 ;;Total ram usage:        3 bytes
   893 ;; Hardware stack levels used: 1
   894 ;; This function calls:
   895 ;;		Nothing
   896 ;; This function is called by:
   897 ;;		Interrupt level 1
   898 ;; This function uses a non-reentrant model
   899 ;;
   900                           
   901  00C8                     _isr:	
   902                           ;psect for function _isr
   903                           
   904  00C8                     i1l776:
   905                           
   906                           ;main.c: 53:     if(PIR1bits.ADIF){
   907  00C8  1283               	bcf	3,5	;RP0=0, select bank0
   908  00C9  1303               	bcf	3,6	;RP1=0, select bank0
   909  00CA  1F0C               	btfss	12,6	;volatile
   910  00CB  28CD               	goto	u1_21
   911  00CC  28CE               	goto	u1_20
   912  00CD                     u1_21:
   913  00CD  28DF               	goto	i1l69
   914  00CE                     u1_20:
   915  00CE                     i1l778:
   916                           
   917                           ;main.c: 54:         if(ADCON0bits.CHS == 0){
   918  00CE  0C1F               	rrf	31,w	;volatile
   919  00CF  00F0               	movwf	??_isr
   920  00D0  0C70               	rrf	??_isr,w
   921  00D1  390F               	andlw	15
   922  00D2  3A00               	xorlw	0
   923  00D3  1D03               	skipz
   924  00D4  28D6               	goto	u2_21
   925  00D5  28D7               	goto	u2_20
   926  00D6                     u2_21:
   927  00D6  28DD               	goto	i1l782
   928  00D7                     u2_20:
   929  00D7                     i1l780:
   930                           
   931                           ;main.c: 55:             valor_pot = ADRESH;
   932  00D7  081E               	movf	30,w	;volatile
   933  00D8  00F0               	movwf	??_isr
   934  00D9  0870               	movf	??_isr,w
   935  00DA  00F6               	movwf	_valor_pot
   936                           
   937                           ;main.c: 56:             PORTC = valor_pot;
   938  00DB  0876               	movf	_valor_pot,w
   939  00DC  0087               	movwf	7	;volatile
   940  00DD                     i1l782:
   941                           
   942                           ;main.c: 58:         PIR1bits.ADIF = 0;
   943  00DD  130C               	bcf	12,6	;volatile
   944                           
   945                           ;main.c: 59:     }
   946  00DE  2900               	goto	i1l78
   947  00DF                     i1l69:	
   948                           ;main.c: 61:     else if (INTCONbits.RBIF){
   949                           
   950  00DF  1C0B               	btfss	11,0	;volatile
   951  00E0  28E2               	goto	u3_21
   952  00E1  28E3               	goto	u3_20
   953  00E2                     u3_21:
   954  00E2  2900               	goto	i1l78
   955  00E3                     u3_20:
   956  00E3                     i1l784:
   957                           
   958                           ;main.c: 62:         if (PORTBbits.RB0 == 0){
   959  00E3  1806               	btfsc	6,0	;volatile
   960  00E4  28E6               	goto	u4_21
   961  00E5  28E7               	goto	u4_20
   962  00E6                     u4_21:
   963  00E6  28EE               	goto	i1l73
   964  00E7                     u4_20:
   965  00E7                     i1l786:
   966                           
   967                           ;main.c: 63:             if (bandera_sleep ==0){
   968  00E7  0875               	movf	_bandera_sleep,w
   969  00E8  1D03               	btfss	3,2
   970  00E9  28EB               	goto	u5_21
   971  00EA  28EC               	goto	u5_20
   972  00EB                     u5_21:
   973  00EB  28EE               	goto	i1l73
   974  00EC                     u5_20:
   975  00EC                     i1l788:
   976                           
   977                           ;main.c: 64:                 bandera_sleep =1; }
   978  00EC  01F5               	clrf	_bandera_sleep
   979  00ED  0AF5               	incf	_bandera_sleep,f
   980  00EE                     i1l73:	
   981                           ;main.c: 65:         }
   982                           
   983                           
   984                           ;main.c: 67:         if (PORTBbits.RB1 == 0){
   985  00EE  1886               	btfsc	6,1	;volatile
   986  00EF  28F1               	goto	u6_21
   987  00F0  28F2               	goto	u6_20
   988  00F1                     u6_21:
   989  00F1  28F8               	goto	i1l794
   990  00F2                     u6_20:
   991  00F2                     i1l790:
   992                           
   993                           ;main.c: 68:             if (bandera_sleep ==1){
   994  00F2  0375               	decf	_bandera_sleep,w
   995  00F3  1D03               	btfss	3,2
   996  00F4  28F6               	goto	u7_21
   997  00F5  28F7               	goto	u7_20
   998  00F6                     u7_21:
   999  00F6  28F8               	goto	i1l794
  1000  00F7                     u7_20:
  1001  00F7                     i1l792:
  1002                           
  1003                           ;main.c: 69:                 bandera_sleep =0; }
  1004  00F7  01F5               	clrf	_bandera_sleep
  1005  00F8                     i1l794:
  1006                           
  1007                           ;main.c: 72:         if (PORTBbits.RB2 == 0){
  1008  00F8  1906               	btfsc	6,2	;volatile
  1009  00F9  28FB               	goto	u8_21
  1010  00FA  28FC               	goto	u8_20
  1011  00FB                     u8_21:
  1012  00FB  28FF               	goto	i1l800
  1013  00FC                     u8_20:
  1014  00FC                     i1l796:
  1015                           
  1016                           ;main.c: 73:             bandera_sleep =0;
  1017  00FC  01F5               	clrf	_bandera_sleep
  1018  00FD                     i1l798:
  1019                           
  1020                           ;main.c: 74:             bandera_write = 1; }
  1021  00FD  01F8               	clrf	_bandera_write
  1022  00FE  0AF8               	incf	_bandera_write,f
  1023  00FF                     i1l800:
  1024                           
  1025                           ;main.c: 75:         INTCONbits.RBIF = 0;
  1026  00FF  100B               	bcf	11,0	;volatile
  1027  0100                     i1l78:
  1028  0100  0872               	movf	??_isr+2,w
  1029  0101  008A               	movwf	10
  1030  0102  0E71               	swapf	??_isr+1,w
  1031  0103  0083               	movwf	3
  1032  0104  0EFE               	swapf	btemp,f
  1033  0105  0E7E               	swapf	btemp,w
  1034  0106  0009               	retfie
  1035  0107                     __end_of_isr:
  1036  007E                     btemp	set	126	;btemp
  1037  007E                     wtemp0	set	126
  1038                           
  1039                           	psect	intentry
  1040  0004                     __pintentry:	
  1041                           ;incstack = 0
  1042                           ; Regs used in _isr: [wreg+status,2+status,0]
  1043                           
  1044  0004                     interrupt_function:
  1045  007E                     saved_w	set	btemp
  1046  0004  00FE               	movwf	btemp
  1047  0005  0E03               	swapf	3,w
  1048  0006  00F1               	movwf	??_isr+1
  1049  0007  080A               	movf	10,w
  1050  0008  00F2               	movwf	??_isr+2
  1051  0009  120A  118A  28C8   	ljmp	_isr
  1052                           
  1053                           	psect	idloc
  1054                           
  1055                           ;Config register IDLOC0 @ 0x2000
  1056                           ;	unspecified, using default values
  1057  2000                     	org	8192
  1058  2000  3FFF               	dw	16383
  1059                           
  1060                           ;Config register IDLOC1 @ 0x2001
  1061                           ;	unspecified, using default values
  1062  2001                     	org	8193
  1063  2001  3FFF               	dw	16383
  1064                           
  1065                           ;Config register IDLOC2 @ 0x2002
  1066                           ;	unspecified, using default values
  1067  2002                     	org	8194
  1068  2002  3FFF               	dw	16383
  1069                           
  1070                           ;Config register IDLOC3 @ 0x2003
  1071                           ;	unspecified, using default values
  1072  2003                     	org	8195
  1073  2003  3FFF               	dw	16383
  1074                           
  1075                           	psect	config
  1076                           
  1077                           ;Config register CONFIG1 @ 0x2007
  1078                           ;	Oscillator Selection bits
  1079                           ;	FOSC = INTRC_NOCLKOUT, INTOSCIO oscillator: I/O function on RA6/OSC2/CLKOUT pin, I/O f
      +                          unction on RA7/OSC1/CLKIN
  1080                           ;	Watchdog Timer Enable bit
  1081                           ;	WDTE = OFF, WDT disabled and can be enabled by SWDTEN bit of the WDTCON register
  1082                           ;	Power-up Timer Enable bit
  1083                           ;	PWRTE = OFF, PWRT disabled
  1084                           ;	RE3/MCLR pin function select bit
  1085                           ;	MCLRE = OFF, RE3/MCLR pin function is digital input, MCLR internally tied to VDD
  1086                           ;	Code Protection bit
  1087                           ;	CP = OFF, Program memory code protection is disabled
  1088                           ;	Data Code Protection bit
  1089                           ;	CPD = OFF, Data memory code protection is disabled
  1090                           ;	Brown Out Reset Selection bits
  1091                           ;	BOREN = OFF, BOR disabled
  1092                           ;	Internal External Switchover bit
  1093                           ;	IESO = OFF, Internal/External Switchover mode is disabled
  1094                           ;	Fail-Safe Clock Monitor Enabled bit
  1095                           ;	FCMEN = OFF, Fail-Safe Clock Monitor is disabled
  1096                           ;	Low Voltage Programming Enable bit
  1097                           ;	LVP = OFF, RB3 pin has digital I/O, HV on MCLR must be used for programming
  1098                           ;	In-Circuit Debugger Mode bit
  1099                           ;	DEBUG = 0x1, unprogrammed default
  1100  2007                     	org	8199
  1101  2007  20D4               	dw	8404
  1102                           
  1103                           ;Config register CONFIG2 @ 0x2008
  1104                           ;	Brown-out Reset Selection bit
  1105                           ;	BOR4V = BOR40V, Brown-out Reset set to 4.0V
  1106                           ;	Flash Program Memory Self Write Enable bits
  1107                           ;	WRT = OFF, Write protection off
  1108  2008                     	org	8200
  1109  2008  3FFF               	dw	16383

Data Sizes:
    Strings     0
    Constant    0
    Data        0
    BSS         4
    Persistent  0
    Stack       0

Auto Spaces:
    Space          Size  Autos    Used
    COMMON           14      5       9
    BANK0            80      3       3
    BANK1            80      0       0
    BANK3            96      0       0
    BANK2            96      0       0

Pointer List with Targets:

    None.

Critical Paths under _main in COMMON

    _main->_write_EEPROM

Critical Paths under _isr in COMMON

    None.

Critical Paths under _main in BANK0

    None.

Critical Paths under _isr in BANK0

    None.

Critical Paths under _main in BANK1

    None.

Critical Paths under _isr in BANK1

    None.

Critical Paths under _main in BANK3

    None.

Critical Paths under _isr in BANK3

    None.

Critical Paths under _main in BANK2

    None.

Critical Paths under _isr in BANK2

    None.

Call Graph Tables:

 ---------------------------------------------------------------------------------
 (Depth) Function   	        Calls       Base Space   Used Autos Params    Refs
 ---------------------------------------------------------------------------------
 (0) _main                                                 3     3      0     135
                                              0 BANK0      3     3      0
                        _read_EEPROM
                              _setup
                       _write_EEPROM
 ---------------------------------------------------------------------------------
 (1) _write_EEPROM                                         2     1      1     120
                                              3 COMMON     2     1      1
 ---------------------------------------------------------------------------------
 (1) _setup                                                1     1      0       0
                                              3 COMMON     1     1      0
 ---------------------------------------------------------------------------------
 (1) _read_EEPROM                                          1     1      0      15
                                              3 COMMON     1     1      0
 ---------------------------------------------------------------------------------
 Estimated maximum stack depth 1
 ---------------------------------------------------------------------------------
 (Depth) Function   	        Calls       Base Space   Used Autos Params    Refs
 ---------------------------------------------------------------------------------
 (2) _isr                                                  3     3      0       0
                                              0 COMMON     3     3      0
 ---------------------------------------------------------------------------------
 Estimated maximum stack depth 2
 ---------------------------------------------------------------------------------

 Call Graph Graphs:

 _main (ROOT)
   _read_EEPROM
   _setup
   _write_EEPROM

 _isr (ROOT)

 Address spaces:
Name               Size   Autos  Total    Cost      Usage
BITCOMMON            E      0       0       0        0.0%
EEDATA             100      0       0       0        0.0%
NULL                 0      0       0       0        0.0%
CODE                 0      0       0       0        0.0%
COMMON               E      5       9       1       64.3%
BITSFR0              0      0       0       1        0.0%
SFR0                 0      0       0       1        0.0%
BITSFR1              0      0       0       2        0.0%
SFR1                 0      0       0       2        0.0%
STACK                0      0       0       2        0.0%
ABS                  0      0       C       3        0.0%
BITBANK0            50      0       0       4        0.0%
BITSFR3              0      0       0       4        0.0%
SFR3                 0      0       0       4        0.0%
BANK0               50      3       3       5        3.8%
BITSFR2              0      0       0       5        0.0%
SFR2                 0      0       0       5        0.0%
BITBANK1            50      0       0       6        0.0%
BANK1               50      0       0       7        0.0%
BITBANK3            60      0       0       8        0.0%
BANK3               60      0       0       9        0.0%
BITBANK2            60      0       0      10        0.0%
BANK2               60      0       0      11        0.0%
DATA                 0      0       C      12        0.0%


Microchip Technology PIC Macro Assembler V2.35 build 20211206165544 
Symbol Table                                                                                   Wed May 18 10:09:46 2022

                     l94 00C7                       l97 0128                      l100 011B  
                    l700 0089                      l710 009B                      l702 008C  
                    l720 00AA                      l712 009C                      l704 008F  
                    l730 00B8                      l722 00AD                      l714 00A2  
                    l706 0092                      l740 00BD                      l732 00B9  
                    l724 00B0                      l716 00A5                      l708 0095  
                    l900 003A                      l750 00C6                      l742 00BE  
                    l734 00BA                      l726 00B4                      l718 00A6  
                    l910 005B                      l902 0046                      l744 00BF  
                    l736 00BB                      l728 00B7                      l840 0111  
                    l912 0069                      l904 0050                      l770 0121  
                    l746 00C2                      l738 00BC                      l850 011A  
                    l842 0112                      l914 006C                      l906 0051  
                    l772 0124                      l748 00C5                      l692 007E  
                    l844 0117                      l836 0108                      l908 005A  
                    l694 0082                      l846 0118                      l838 010E  
                    l768 011D                      l696 0083                      l848 0119  
                    l698 0086                      l890 0023                      l892 0028  
                    l884 0017                      l894 002D                      l886 001C  
                    l896 0032                      l888 0022                      l898 0035  
                    u200 003A                      u201 0039                      u217 004C  
                    u170 0022                      u227 0063                      u171 0021  
                    u180 0028                      u237 0074                      u181 0027  
                    u190 0032                      u247 00B2                      u191 0031  
                    _isr 00C8                     ?_isr 0070                     i1l73 00EE  
                   i1l69 00DF                     i1l78 0100                     u1_20 00CE  
                   u1_21 00CD                     u2_20 00D7                     u2_21 00D6  
                   u3_20 00E3                     u3_21 00E2                     u4_20 00E7  
                   u4_21 00E6                     u5_20 00EC                     u5_21 00EB  
                   u6_20 00F2                     u6_21 00F1                     u7_20 00F7  
                   u7_21 00F6                     u8_20 00FC                     u8_21 00FB  
                   _main 0017                     btemp 007E                     start 000C  
           ?_read_EEPROM 0070                    ??_isr 0070                    ?_main 0070  
                  _EEADR 010D                    _EEDAT 010C                    _ANSEL 0188  
                  i1l800 00FF                    i1l780 00D7                    i1l790 00F2  
                  i1l782 00DD                    i1l792 00F7                    i1l784 00E3  
                  i1l776 00C8                    i1l794 00F8                    i1l786 00E7  
                  i1l778 00CE                    i1l796 00FC                    i1l788 00EC  
                  i1l798 00FD                    _PORTC 0007                    _PORTD 0008  
                  _PORTE 0009                    _TRISC 0087                    _TRISD 0088  
                  _TRISE 0089                    _setup 007E                    pclath 000A  
                  status 0003                    wtemp0 007E          __initialization 000F  
           __end_of_main 007E                   ??_main 0020             _write_EEPROM 0107  
                 _ADRESH 001E                   _EECON2 018D                   ?_setup 0070  
                 _ANSELH 0189             _bandera_read 0077                   saved_w 007E  
__end_of__initialization 0013           __pcstackCOMMON 0070            __end_of_setup 00C8  
     read_EEPROM@address 0073           _OPTION_REGbits 0081         write_EEPROM@data 0073  
                ??_setup 0073               __pmaintext 0017               __pintentry 0004  
          _bandera_sleep 0075            _bandera_write 0078                  __ptext1 0107  
                __ptext2 007E                  __ptext3 011C                  __ptext4 00C8  
   end_of_initialization 0013      write_EEPROM@address 0074                _PORTBbits 0006  
              _PORTEbits 0009      start_initialization 000F              __end_of_isr 0107  
          ??_read_EEPROM 0073              __pbssCOMMON 0075                ___latbits 0002  
          __pcstackBANK0 0020      __end_of_read_EEPROM 0129            ?_write_EEPROM 0073  
      interrupt_function 0004                 _IOCBbits 0096                 _PIE1bits 008C  
               _PIR1bits 000C                _valor_pot 0076               _ADCON0bits 001F  
             _ADCON1bits 009F           ??_write_EEPROM 0074                 _WPUBbits 0095  
             _EECON1bits 018C              _read_EEPROM 011C               _INTCONbits 000B  
               intlevel1 0000     __end_of_write_EEPROM 011C               _OSCCONbits 008F  
